target datalayout = "e-m:e-p270:32:32-p271:32:32-p272:64:64-i64:64-i128:128-f80:128-n8:16:32:64-S128"
target triple = "x86_64-unknown-linux-gnu"

%"class.facebook::velox::type::Parser" = type { ptr, %"class.facebook::velox::type::Parser::stack", ptr }
%"class.facebook::velox::type::Parser::stack" = type { %"class.std::vector" }
%"class.std::vector" = type { %"struct.std::_Vector_base" }
%"struct.std::_Vector_base" = type { %"struct.std::_Vector_base<facebook::velox::type::Parser::stack_symbol_type, std::allocator<facebook::velox::type::Parser::stack_symbol_type>>::_Vector_impl" }
%"struct.std::_Vector_base<facebook::velox::type::Parser::stack_symbol_type, std::allocator<facebook::velox::type::Parser::stack_symbol_type>>::_Vector_impl" = type { %"struct.std::_Vector_base<facebook::velox::type::Parser::stack_symbol_type, std::allocator<facebook::velox::type::Parser::stack_symbol_type>>::_Vector_impl_data" }
%"struct.std::_Vector_base<facebook::velox::type::Parser::stack_symbol_type, std::allocator<facebook::velox::type::Parser::stack_symbol_type>>::_Vector_impl_data" = type { ptr, ptr, ptr }
%"struct.facebook::velox::type::Parser::by_state" = type { i8 }
%"struct.facebook::velox::type::Parser::basic_symbol" = type { %"struct.facebook::velox::type::Parser::by_state", %"class.facebook::velox::type::Parser::value_type" }
%"class.facebook::velox::type::Parser::value_type" = type { %union.anon.0 }
%union.anon.0 = type { x86_fp80, [32 x i8] }
%"struct.facebook::velox::type::Parser::stack_symbol_type" = type { %"struct.facebook::velox::type::Parser::basic_symbol" }

; Function Attrs: mustprogress nounwind uwtable
define linkonce_odr void @_ZN8facebook5velox4type6Parser10value_typeD2Ev(ptr noundef nonnull align 16 dereferenceable(48) %this) unnamed_addr #4 comdat align 2 {
entry:
  %this.addr = alloca ptr, align 8
  store ptr %this, ptr %this.addr, align 8
  ret void
}

; Function Attrs: mustprogress nounwind uwtable
define linkonce_odr void @_ZN8facebook5velox4type6Parser12basic_symbolINS2_8by_stateEED2Ev(ptr noundef nonnull align 16 dereferenceable(64) %this) unnamed_addr #4 comdat align 2 {
entry:
  %this.addr = alloca ptr, align 8
  store ptr %this, ptr %this.addr, align 8
  %this1 = load ptr, ptr %this.addr, align 8
  call void @_ZN8facebook5velox4type6Parser12basic_symbolINS2_8by_stateEE5clearEv(ptr noundef nonnull align 16 dereferenceable(64) %this1) #3
  %value = getelementptr inbounds %"struct.facebook::velox::type::Parser::basic_symbol", ptr %this1, i32 0, i32 1
  call void @_ZN8facebook5velox4type6Parser10value_typeD2Ev(ptr noundef nonnull align 16 dereferenceable(48) %value) #3
  ret void
}

; Function Attrs: mustprogress nounwind uwtable
define linkonce_odr void @_ZN8facebook5velox4type6Parser17stack_symbol_typeD2Ev(ptr noundef nonnull align 16 dereferenceable(64) %this) unnamed_addr #4 comdat align 2 {
entry:
  %this.addr = alloca ptr, align 8
  store ptr %this, ptr %this.addr, align 8
  %this1 = load ptr, ptr %this.addr, align 8
  call void @_ZN8facebook5velox4type6Parser12basic_symbolINS2_8by_stateEED2Ev(ptr noundef nonnull align 16 dereferenceable(64) %this1) #3
  ret void
}

; Function Attrs: mustprogress nounwind uwtable
define linkonce_odr void @_ZNSt15__new_allocatorIN8facebook5velox4type6Parser17stack_symbol_typeEE7destroyIS4_EEvPT_(ptr noundef nonnull align 1 dereferenceable(1) %this, ptr noundef %__p) #4 comdat align 2 {
entry:
  %this.addr = alloca ptr, align 8
  %__p.addr = alloca ptr, align 8
  store ptr %this, ptr %this.addr, align 8
  store ptr %__p, ptr %__p.addr, align 8
  %0 = load ptr, ptr %__p.addr, align 8
  call void @_ZN8facebook5velox4type6Parser17stack_symbol_typeD2Ev(ptr noundef nonnull align 16 dereferenceable(64) %0) #3
  ret void
}

; Function Attrs: mustprogress nounwind uwtable
define linkonce_odr void @_ZNSt16allocator_traitsISaIN8facebook5velox4type6Parser17stack_symbol_typeEEE7destroyIS4_EEvRS5_PT_(ptr noundef nonnull align 1 dereferenceable(1) %__a, ptr noundef %__p) #4 comdat align 2 {
entry:
  %__a.addr = alloca ptr, align 8
  %__p.addr = alloca ptr, align 8
  store ptr %__a, ptr %__a.addr, align 8
  store ptr %__p, ptr %__p.addr, align 8
  %0 = load ptr, ptr %__a.addr, align 8
  %1 = load ptr, ptr %__p.addr, align 8
  call void @_ZNSt15__new_allocatorIN8facebook5velox4type6Parser17stack_symbol_typeEE7destroyIS4_EEvPT_(ptr noundef nonnull align 1 dereferenceable(1) %0, ptr noundef %1) #3
  ret void
}

; Function Attrs: mustprogress nounwind uwtable
define linkonce_odr void @_ZNSt6vectorIN8facebook5velox4type6Parser17stack_symbol_typeESaIS4_EE8pop_backEv(ptr noundef nonnull align 8 dereferenceable(24) %this) #4 comdat align 2 {
entry:
  %this.addr = alloca ptr, align 8
  store ptr %this, ptr %this.addr, align 8
  %this1 = load ptr, ptr %this.addr, align 8
  %_M_impl = getelementptr inbounds %"struct.std::_Vector_base", ptr %this1, i32 0, i32 0
  %_M_finish = getelementptr inbounds %"struct.std::_Vector_base<facebook::velox::type::Parser::stack_symbol_type, std::allocator<facebook::velox::type::Parser::stack_symbol_type>>::_Vector_impl_data", ptr %_M_impl, i32 0, i32 1
  %0 = load ptr, ptr %_M_finish, align 8
  %incdec.ptr = getelementptr inbounds %"struct.facebook::velox::type::Parser::stack_symbol_type", ptr %0, i32 -1
  store ptr %incdec.ptr, ptr %_M_finish, align 8
  %_M_impl2 = getelementptr inbounds %"struct.std::_Vector_base", ptr %this1, i32 0, i32 0
  %_M_impl3 = getelementptr inbounds %"struct.std::_Vector_base", ptr %this1, i32 0, i32 0
  %_M_finish4 = getelementptr inbounds %"struct.std::_Vector_base<facebook::velox::type::Parser::stack_symbol_type, std::allocator<facebook::velox::type::Parser::stack_symbol_type>>::_Vector_impl_data", ptr %_M_impl3, i32 0, i32 1
  %1 = load ptr, ptr %_M_finish4, align 8
  call void @_ZNSt16allocator_traitsISaIN8facebook5velox4type6Parser17stack_symbol_typeEEE7destroyIS4_EEvRS5_PT_(ptr noundef nonnull align 1 dereferenceable(1) %_M_impl2, ptr noundef %1) #3
  ret void
}

; Function Attrs: mustprogress nounwind uwtable
define linkonce_odr void @_ZN8facebook5velox4type6Parser5stackINS2_17stack_symbol_typeESt6vectorIS4_SaIS4_EEE3popEl(ptr noundef nonnull align 8 dereferenceable(24) %this, i64 noundef %n) #4 comdat align 2 {
entry:
  %this.addr = alloca ptr, align 8
  %n.addr = alloca i64, align 8
  store ptr %this, ptr %this.addr, align 8
  store i64 %n, ptr %n.addr, align 8
  %this1 = load ptr, ptr %this.addr, align 8
  br label %for.cond

for.cond:                                         ; preds = %for.inc, %entry
  %0 = load i64, ptr %n.addr, align 8
  %cmp = icmp slt i64 0, %0
  br i1 %cmp, label %for.body, label %for.end

for.body:                                         ; preds = %for.cond
  %seq_ = getelementptr inbounds %"class.facebook::velox::type::Parser::stack", ptr %this1, i32 0, i32 0
  call void @_ZNSt6vectorIN8facebook5velox4type6Parser17stack_symbol_typeESaIS4_EE8pop_backEv(ptr noundef nonnull align 8 dereferenceable(24) %seq_) #3
  br label %for.inc

for.inc:                                          ; preds = %for.body
  %1 = load i64, ptr %n.addr, align 8
  %dec = add nsw i64 %1, -1
  store i64 %dec, ptr %n.addr, align 8
  br label %for.cond, !llvm.loop !4

for.end:                                          ; preds = %for.cond
  ret void
}

; Function Attrs: mustprogress nounwind uwtable
define void @_ZN8facebook5velox4type6Parser6yypop_Ei(ptr noundef nonnull align 8 dereferenceable(40) %this, i32 noundef %n) #4 align 2 {
entry:
  %this.addr = alloca ptr, align 8
  %n.addr = alloca i32, align 4
  store ptr %this, ptr %this.addr, align 8
  store i32 %n, ptr %n.addr, align 4
  %this1 = load ptr, ptr %this.addr, align 8
  %yystack_ = getelementptr inbounds %"class.facebook::velox::type::Parser", ptr %this1, i32 0, i32 1
  %0 = load i32, ptr %n.addr, align 4
  %conv = sext i32 %0 to i64
  call void @_ZN8facebook5velox4type6Parser5stackINS2_17stack_symbol_typeESt6vectorIS4_SaIS4_EEE3popEl(ptr noundef nonnull align 8 dereferenceable(24) %yystack_, i64 noundef %conv) #3
  ret void
}