; Function Attrs: mustprogress nounwind uwtable
define void @_ZN8facebook5velox4type6Parser6yypop_Ei(ptr nocapture noundef nonnull align 8 dereferenceable(40) %this, i32 noundef %n) local_unnamed_addr #3 align 2 {
entry:
  %cmp2.i = icmp sgt i32 %n, 0
  br i1 %cmp2.i, label %for.body.lr.ph.i, label %_ZN8facebook5velox4type6Parser5stackINS2_17stack_symbol_typeESt6vectorIS4_SaIS4_EEE3popEl.exit

for.body.lr.ph.i:                                 ; preds = %entry
  %conv = zext nneg i32 %n to i64
  %_M_finish.i.i = getelementptr inbounds i8, ptr %this, i64 16
  br label %for.body.i

for.body.i:                                       ; preds = %for.body.i, %for.body.lr.ph.i
  %n.addr.03.i = phi i64 [ %conv, %for.body.lr.ph.i ], [ %dec.i, %for.body.i ]
  %0 = load ptr, ptr %_M_finish.i.i, align 8
  %incdec.ptr.i.i = getelementptr inbounds i8, ptr %0, i64 -64
  store ptr %incdec.ptr.i.i, ptr %_M_finish.i.i, align 8
  tail call void @_ZN8facebook5velox4type6Parser12basic_symbolINS2_8by_stateEE5clearEv(ptr noundef nonnull align 16 dereferenceable(64) %incdec.ptr.i.i) #25
  %dec.i = add nsw i64 %n.addr.03.i, -1
  %cmp.i = icmp ugt i64 %n.addr.03.i, 1
  br i1 %cmp.i, label %for.body.i, label %_ZN8facebook5velox4type6Parser5stackINS2_17stack_symbol_typeESt6vectorIS4_SaIS4_EEE3popEl.exit, !llvm.loop !6

_ZN8facebook5velox4type6Parser5stackINS2_17stack_symbol_typeESt6vectorIS4_SaIS4_EEE3popEl.exit: ; preds = %for.body.i, %entry
  ret void
}